target datalayout = "e-m:e-p270:32:32-p271:32:32-p272:64:64-i64:64-i128:128-f80:128-n8:16:32:64-S128"
target triple = "x86_64-pc-linux-gnu"

%struct.doip_info = type { i16, i16 }

@.str.850 = private unnamed_addr constant [29 x i8] c"%s:%u: failed assertion \22%s\22\00", align 1
@.str.851 = private unnamed_addr constant [29 x i8] c"epan/dissectors/packet-uds.c\00", align 1
@.str.852 = private unnamed_addr constant [5 x i8] c"data\00", align 1

; Function Attrs: null_pointer_is_valid sspstrong uwtable
define internal i32 @dissect_uds_doip(ptr noundef %0, ptr noundef %1, ptr noundef %2, ptr noundef %3) #0 {
  %5 = alloca ptr, align 8
  %6 = alloca ptr, align 8
  %7 = alloca ptr, align 8
  %8 = alloca ptr, align 8
  %9 = alloca ptr, align 8
  store ptr %0, ptr %5, align 8
  store ptr %1, ptr %6, align 8
  store ptr %2, ptr %7, align 8
  store ptr %3, ptr %8, align 8
  %10 = load ptr, ptr %8, align 8
  %11 = icmp ne ptr %10, null
  br i1 %11, label %12, label %13

12:                                               ; preds = %4
  br label %15

13:                                               ; preds = %4
  call void (ptr, ...) @proto_report_dissector_bug(ptr noundef @.str.850, ptr noundef @.str.851, i32 noundef 3214, ptr noundef @.str.852) #13
  unreachable

14:                                               ; No predecessors!
  br label %15

15:                                               ; preds = %14, %12
  call void @llvm.lifetime.start.p0(i64 8, ptr %9) #12
  %16 = load ptr, ptr %8, align 8
  store ptr %16, ptr %9, align 8
  %17 = load ptr, ptr %5, align 8
  %18 = load ptr, ptr %6, align 8
  %19 = load ptr, ptr %7, align 8
  %20 = load ptr, ptr %9, align 8
  %21 = getelementptr inbounds nuw %struct.doip_info, ptr %20, i32 0, i32 1
  %22 = load i16, ptr %21, align 2
  %23 = load ptr, ptr %9, align 8
  %24 = getelementptr inbounds nuw %struct.doip_info, ptr %23, i32 0, i32 0
  %25 = load i16, ptr %24, align 2
  %26 = call i32 @dissect_uds_internal(ptr noundef %17, ptr noundef %18, ptr noundef %19, i16 noundef zeroext %22, i16 noundef zeroext %25, i8 noundef zeroext 2, i8 noundef zeroext 2)
  call void @llvm.lifetime.end.p0(i64 8, ptr %9) #12
  ret i32 %26
}