; Function Attrs: null_pointer_is_valid sspstrong uwtable
define internal i32 @dissect_uds_doip(ptr noundef %0, ptr noundef %1, ptr noundef %2, ptr noundef readonly captures(address_is_null) %3) #0 {
  %.not = icmp eq ptr %3, null
  br i1 %.not, label %5, label %6

5:                                                ; preds = %4
  tail call void (ptr, ...) @proto_report_dissector_bug(ptr noundef nonnull @.str.850, ptr noundef nonnull @.str.851, i32 noundef 3214, ptr noundef nonnull @.str.852) #11
  unreachable

6:                                                ; preds = %4
  %7 = getelementptr inbounds nuw i8, ptr %3, i64 2
  %8 = load i16, ptr %7, align 2
  %9 = load i16, ptr %3, align 2
  %10 = tail call fastcc i32 @dissect_uds_internal(ptr noundef %0, ptr noundef %1, ptr noundef %2, i16 noundef zeroext %8, i16 noundef zeroext %9, i8 noundef zeroext 2, i8 noundef zeroext 2)
  ret i32 %10
}